target datalayout = "e-m:e-p270:32:32-p271:32:32-p272:64:64-i64:64-i128:128-f80:128-n8:16:32:64-S128"
target triple = "x86_64-pc-linux-gnu"

%struct.WebPPicture = type { i32, i32, i32, i32, ptr, ptr, ptr, i32, i32, ptr, i32, [2 x i32], ptr, i32, [3 x i32], ptr, ptr, i32, ptr, ptr, i32, ptr, ptr, [3 x i32], ptr, ptr, [8 x i32], ptr, ptr, [2 x ptr] }

; Function Attrs: nounwind uwtable
define i32 @WebPPictureYUVAToARGB(ptr noundef %0) #0 {
  %2 = alloca i32, align 4
  %3 = alloca ptr, align 8
  %4 = alloca i32, align 4
  %5 = alloca i32, align 4
  %6 = alloca i32, align 4
  %7 = alloca i32, align 4
  %8 = alloca ptr, align 8
  %9 = alloca ptr, align 8
  %10 = alloca ptr, align 8
  %11 = alloca ptr, align 8
  %12 = alloca ptr, align 8
  %13 = alloca ptr, align 8
  %14 = alloca ptr, align 8
  %15 = alloca ptr, align 8
  %16 = alloca ptr, align 8
  %17 = alloca i32, align 4
  store ptr %0, ptr %3, align 8, !tbaa !3
  %18 = load ptr, ptr %3, align 8, !tbaa !3
  %19 = icmp eq ptr %18, null
  br i1 %19, label %20, label %21

20:                                               ; preds = %1
  store i32 0, ptr %2, align 4
  br label %244

21:                                               ; preds = %1
  %22 = load ptr, ptr %3, align 8, !tbaa !3
  %23 = getelementptr inbounds nuw %struct.WebPPicture, ptr %22, i32 0, i32 4
  %24 = load ptr, ptr %23, align 8, !tbaa !29
  %25 = icmp eq ptr %24, null
  br i1 %25, label %36, label %26

26:                                               ; preds = %21
  %27 = load ptr, ptr %3, align 8, !tbaa !3
  %28 = getelementptr inbounds nuw %struct.WebPPicture, ptr %27, i32 0, i32 5
  %29 = load ptr, ptr %28, align 8, !tbaa !30
  %30 = icmp eq ptr %29, null
  br i1 %30, label %36, label %31

31:                                               ; preds = %26
  %32 = load ptr, ptr %3, align 8, !tbaa !3
  %33 = getelementptr inbounds nuw %struct.WebPPicture, ptr %32, i32 0, i32 6
  %34 = load ptr, ptr %33, align 8, !tbaa !31
  %35 = icmp eq ptr %34, null
  br i1 %35, label %36, label %39

36:                                               ; preds = %31, %26, %21
  %37 = load ptr, ptr %3, align 8, !tbaa !3
  %38 = call i32 @WebPEncodingSetError(ptr noundef %37, i32 noundef 3)
  store i32 %38, ptr %2, align 4
  br label %244

39:                                               ; preds = %31
  %40 = load ptr, ptr %3, align 8, !tbaa !3
  %41 = getelementptr inbounds nuw %struct.WebPPicture, ptr %40, i32 0, i32 1
  %42 = load i32, ptr %41, align 4, !tbaa !28
  %43 = and i32 %42, 4
  %44 = icmp ne i32 %43, 0
  br i1 %44, label %45, label %53

45:                                               ; preds = %39
  %46 = load ptr, ptr %3, align 8, !tbaa !3
  %47 = getelementptr inbounds nuw %struct.WebPPicture, ptr %46, i32 0, i32 9
  %48 = load ptr, ptr %47, align 8, !tbaa !18
  %49 = icmp eq ptr %48, null
  br i1 %49, label %50, label %53

50:                                               ; preds = %45
  %51 = load ptr, ptr %3, align 8, !tbaa !3
  %52 = call i32 @WebPEncodingSetError(ptr noundef %51, i32 noundef 3)
  store i32 %52, ptr %2, align 4
  br label %244

53:                                               ; preds = %45, %39
  %54 = load ptr, ptr %3, align 8, !tbaa !3
  %55 = getelementptr inbounds nuw %struct.WebPPicture, ptr %54, i32 0, i32 1
  %56 = load i32, ptr %55, align 4, !tbaa !28
  %57 = and i32 %56, 3
  %58 = icmp ne i32 %57, 0
  br i1 %58, label %59, label %62

59:                                               ; preds = %53
  %60 = load ptr, ptr %3, align 8, !tbaa !3
  %61 = call i32 @WebPEncodingSetError(ptr noundef %60, i32 noundef 4)
  store i32 %61, ptr %2, align 4
  br label %244

62:                                               ; preds = %53
  %63 = load ptr, ptr %3, align 8, !tbaa !3
  %64 = call i32 @WebPPictureAllocARGB(ptr noundef %63)
  %65 = icmp ne i32 %64, 0
  br i1 %65, label %67, label %66

66:                                               ; preds = %62
  store i32 0, ptr %2, align 4
  br label %244

67:                                               ; preds = %62
  %68 = load ptr, ptr %3, align 8, !tbaa !3
  %69 = getelementptr inbounds nuw %struct.WebPPicture, ptr %68, i32 0, i32 0
  store i32 1, ptr %69, align 8, !tbaa !8
  call void @llvm.lifetime.start.p0(i64 4, ptr %4) #7
  call void @llvm.lifetime.start.p0(i64 4, ptr %5) #7
  %70 = load ptr, ptr %3, align 8, !tbaa !3
  %71 = getelementptr inbounds nuw %struct.WebPPicture, ptr %70, i32 0, i32 2
  %72 = load i32, ptr %71, align 8, !tbaa !15
  store i32 %72, ptr %5, align 4, !tbaa !21
  call void @llvm.lifetime.start.p0(i64 4, ptr %6) #7
  %73 = load ptr, ptr %3, align 8, !tbaa !3
  %74 = getelementptr inbounds nuw %struct.WebPPicture, ptr %73, i32 0, i32 3
  %75 = load i32, ptr %74, align 4, !tbaa !16
  store i32 %75, ptr %6, align 4, !tbaa !21
  call void @llvm.lifetime.start.p0(i64 4, ptr %7) #7
  %76 = load ptr, ptr %3, align 8, !tbaa !3
  %77 = getelementptr inbounds nuw %struct.WebPPicture, ptr %76, i32 0, i32 13
  %78 = load i32, ptr %77, align 8, !tbaa !17
  %79 = mul nsw i32 4, %78
  store i32 %79, ptr %7, align 4, !tbaa !21
  call void @llvm.lifetime.start.p0(i64 8, ptr %8) #7
  %80 = load ptr, ptr %3, align 8, !tbaa !3
  %81 = getelementptr inbounds nuw %struct.WebPPicture, ptr %80, i32 0, i32 12
  %82 = load ptr, ptr %81, align 8, !tbaa !14
  store ptr %82, ptr %8, align 8, !tbaa !20
  call void @llvm.lifetime.start.p0(i64 8, ptr %9) #7
  %83 = load ptr, ptr %3, align 8, !tbaa !3
  %84 = getelementptr inbounds nuw %struct.WebPPicture, ptr %83, i32 0, i32 5
  %85 = load ptr, ptr %84, align 8, !tbaa !30
  store ptr %85, ptr %9, align 8, !tbaa !20
  call void @llvm.lifetime.start.p0(i64 8, ptr %10) #7
  %86 = load ptr, ptr %3, align 8, !tbaa !3
  %87 = getelementptr inbounds nuw %struct.WebPPicture, ptr %86, i32 0, i32 6
  %88 = load ptr, ptr %87, align 8, !tbaa !31
  store ptr %88, ptr %10, align 8, !tbaa !20
  call void @llvm.lifetime.start.p0(i64 8, ptr %11) #7
  %89 = load ptr, ptr %3, align 8, !tbaa !3
  %90 = getelementptr inbounds nuw %struct.WebPPicture, ptr %89, i32 0, i32 4
  %91 = load ptr, ptr %90, align 8, !tbaa !29
  store ptr %91, ptr %11, align 8, !tbaa !20
  call void @llvm.lifetime.start.p0(i64 8, ptr %12) #7
  %92 = call ptr @WebPGetLinePairConverter(i32 noundef 1)
  store ptr %92, ptr %12, align 8, !tbaa !22
  %93 = load ptr, ptr %12, align 8, !tbaa !22
  %94 = load ptr, ptr %11, align 8, !tbaa !20
  %95 = load ptr, ptr %9, align 8, !tbaa !20
  %96 = load ptr, ptr %10, align 8, !tbaa !20
  %97 = load ptr, ptr %9, align 8, !tbaa !20
  %98 = load ptr, ptr %10, align 8, !tbaa !20
  %99 = load ptr, ptr %8, align 8, !tbaa !20
  %100 = load i32, ptr %5, align 4, !tbaa !21
  call void %93(ptr noundef %94, ptr noundef null, ptr noundef %95, ptr noundef %96, ptr noundef %97, ptr noundef %98, ptr noundef %99, ptr noundef null, i32 noundef %100)
  %101 = load ptr, ptr %3, align 8, !tbaa !3
  %102 = getelementptr inbounds nuw %struct.WebPPicture, ptr %101, i32 0, i32 7
  %103 = load i32, ptr %102, align 8, !tbaa !32
  %104 = load ptr, ptr %11, align 8, !tbaa !20
  %105 = sext i32 %103 to i64
  %106 = getelementptr inbounds i8, ptr %104, i64 %105
  store ptr %106, ptr %11, align 8, !tbaa !20
  %107 = load i32, ptr %7, align 4, !tbaa !21
  %108 = load ptr, ptr %8, align 8, !tbaa !20
  %109 = sext i32 %107 to i64
  %110 = getelementptr inbounds i8, ptr %108, i64 %109
  store ptr %110, ptr %8, align 8, !tbaa !20
  store i32 1, ptr %4, align 4, !tbaa !21
  br label %111

111:                                              ; preds = %161, %67
  %112 = load i32, ptr %4, align 4, !tbaa !21
  %113 = add nsw i32 %112, 1
  %114 = load i32, ptr %6, align 4, !tbaa !21
  %115 = icmp slt i32 %113, %114
  br i1 %115, label %116, label %164

116:                                              ; preds = %111
  call void @llvm.lifetime.start.p0(i64 8, ptr %13) #7
  %117 = load ptr, ptr %9, align 8, !tbaa !20
  store ptr %117, ptr %13, align 8, !tbaa !20
  call void @llvm.lifetime.start.p0(i64 8, ptr %14) #7
  %118 = load ptr, ptr %10, align 8, !tbaa !20
  store ptr %118, ptr %14, align 8, !tbaa !20
  %119 = load ptr, ptr %3, align 8, !tbaa !3
  %120 = getelementptr inbounds nuw %struct.WebPPicture, ptr %119, i32 0, i32 8
  %121 = load i32, ptr %120, align 4, !tbaa !33
  %122 = load ptr, ptr %9, align 8, !tbaa !20
  %123 = sext i32 %121 to i64
  %124 = getelementptr inbounds i8, ptr %122, i64 %123
  store ptr %124, ptr %9, align 8, !tbaa !20
  %125 = load ptr, ptr %3, align 8, !tbaa !3
  %126 = getelementptr inbounds nuw %struct.WebPPicture, ptr %125, i32 0, i32 8
  %127 = load i32, ptr %126, align 4, !tbaa !33
  %128 = load ptr, ptr %10, align 8, !tbaa !20
  %129 = sext i32 %127 to i64
  %130 = getelementptr inbounds i8, ptr %128, i64 %129
  store ptr %130, ptr %10, align 8, !tbaa !20
  %131 = load ptr, ptr %12, align 8, !tbaa !22
  %132 = load ptr, ptr %11, align 8, !tbaa !20
  %133 = load ptr, ptr %11, align 8, !tbaa !20
  %134 = load ptr, ptr %3, align 8, !tbaa !3
  %135 = getelementptr inbounds nuw %struct.WebPPicture, ptr %134, i32 0, i32 7
  %136 = load i32, ptr %135, align 8, !tbaa !32
  %137 = sext i32 %136 to i64
  %138 = getelementptr inbounds i8, ptr %133, i64 %137
  %139 = load ptr, ptr %13, align 8, !tbaa !20
  %140 = load ptr, ptr %14, align 8, !tbaa !20
  %141 = load ptr, ptr %9, align 8, !tbaa !20
  %142 = load ptr, ptr %10, align 8, !tbaa !20
  %143 = load ptr, ptr %8, align 8, !tbaa !20
  %144 = load ptr, ptr %8, align 8, !tbaa !20
  %145 = load i32, ptr %7, align 4, !tbaa !21
  %146 = sext i32 %145 to i64
  %147 = getelementptr inbounds i8, ptr %144, i64 %146
  %148 = load i32, ptr %5, align 4, !tbaa !21
  call void %131(ptr noundef %132, ptr noundef %138, ptr noundef %139, ptr noundef %140, ptr noundef %141, ptr noundef %142, ptr noundef %143, ptr noundef %147, i32 noundef %148)
  %149 = load ptr, ptr %3, align 8, !tbaa !3
  %150 = getelementptr inbounds nuw %struct.WebPPicture, ptr %149, i32 0, i32 7
  %151 = load i32, ptr %150, align 8, !tbaa !32
  %152 = mul nsw i32 2, %151
  %153 = load ptr, ptr %11, align 8, !tbaa !20
  %154 = sext i32 %152 to i64
  %155 = getelementptr inbounds i8, ptr %153, i64 %154
  store ptr %155, ptr %11, align 8, !tbaa !20
  %156 = load i32, ptr %7, align 4, !tbaa !21
  %157 = mul nsw i32 2, %156
  %158 = load ptr, ptr %8, align 8, !tbaa !20
  %159 = sext i32 %157 to i64
  %160 = getelementptr inbounds i8, ptr %158, i64 %159
  store ptr %160, ptr %8, align 8, !tbaa !20
  call void @llvm.lifetime.end.p0(i64 8, ptr %14) #7
  call void @llvm.lifetime.end.p0(i64 8, ptr %13) #7
  br label %161

161:                                              ; preds = %116
  %162 = load i32, ptr %4, align 4, !tbaa !21
  %163 = add nsw i32 %162, 2
  store i32 %163, ptr %4, align 4, !tbaa !21
  br label %111, !llvm.loop !34

164:                                              ; preds = %111
  %165 = load i32, ptr %6, align 4, !tbaa !21
  %166 = icmp sgt i32 %165, 1
  br i1 %166, label %167, label %180

167:                                              ; preds = %164
  %168 = load i32, ptr %6, align 4, !tbaa !21
  %169 = and i32 %168, 1
  %170 = icmp ne i32 %169, 0
  br i1 %170, label %180, label %171

171:                                              ; preds = %167
  %172 = load ptr, ptr %12, align 8, !tbaa !22
  %173 = load ptr, ptr %11, align 8, !tbaa !20
  %174 = load ptr, ptr %9, align 8, !tbaa !20
  %175 = load ptr, ptr %10, align 8, !tbaa !20
  %176 = load ptr, ptr %9, align 8, !tbaa !20
  %177 = load ptr, ptr %10, align 8, !tbaa !20
  %178 = load ptr, ptr %8, align 8, !tbaa !20
  %179 = load i32, ptr %5, align 4, !tbaa !21
  call void %172(ptr noundef %173, ptr noundef null, ptr noundef %174, ptr noundef %175, ptr noundef %176, ptr noundef %177, ptr noundef %178, ptr noundef null, i32 noundef %179)
  br label %180

180:                                              ; preds = %171, %167, %164
  %181 = load ptr, ptr %3, align 8, !tbaa !3
  %182 = getelementptr inbounds nuw %struct.WebPPicture, ptr %181, i32 0, i32 1
  %183 = load i32, ptr %182, align 4, !tbaa !28
  %184 = and i32 %183, 4
  %185 = icmp ne i32 %184, 0
  br i1 %185, label %186, label %243

186:                                              ; preds = %180
  store i32 0, ptr %4, align 4, !tbaa !21
  br label %187

187:                                              ; preds = %239, %186
  %188 = load i32, ptr %4, align 4, !tbaa !21
  %189 = load i32, ptr %6, align 4, !tbaa !21
  %190 = icmp slt i32 %188, %189
  br i1 %190, label %191, label %242

191:                                              ; preds = %187
  call void @llvm.lifetime.start.p0(i64 8, ptr %15) #7
  %192 = load ptr, ptr %3, align 8, !tbaa !3
  %193 = getelementptr inbounds nuw %struct.WebPPicture, ptr %192, i32 0, i32 12
  %194 = load ptr, ptr %193, align 8, !tbaa !14
  %195 = load i32, ptr %4, align 4, !tbaa !21
  %196 = load ptr, ptr %3, align 8, !tbaa !3
  %197 = getelementptr inbounds nuw %struct.WebPPicture, ptr %196, i32 0, i32 13
  %198 = load i32, ptr %197, align 8, !tbaa !17
  %199 = mul nsw i32 %195, %198
  %200 = sext i32 %199 to i64
  %201 = getelementptr inbounds i32, ptr %194, i64 %200
  store ptr %201, ptr %15, align 8, !tbaa !35
  call void @llvm.lifetime.start.p0(i64 8, ptr %16) #7
  %202 = load ptr, ptr %3, align 8, !tbaa !3
  %203 = getelementptr inbounds nuw %struct.WebPPicture, ptr %202, i32 0, i32 9
  %204 = load ptr, ptr %203, align 8, !tbaa !18
  %205 = load i32, ptr %4, align 4, !tbaa !21
  %206 = load ptr, ptr %3, align 8, !tbaa !3
  %207 = getelementptr inbounds nuw %struct.WebPPicture, ptr %206, i32 0, i32 10
  %208 = load i32, ptr %207, align 8, !tbaa !19
  %209 = mul nsw i32 %205, %208
  %210 = sext i32 %209 to i64
  %211 = getelementptr inbounds i8, ptr %204, i64 %210
  store ptr %211, ptr %16, align 8, !tbaa !20
  call void @llvm.lifetime.start.p0(i64 4, ptr %17) #7
  store i32 0, ptr %17, align 4, !tbaa !21
  br label %212

212:                                              ; preds = %235, %191
  %213 = load i32, ptr %17, align 4, !tbaa !21
  %214 = load i32, ptr %5, align 4, !tbaa !21
  %215 = icmp slt i32 %213, %214
  br i1 %215, label %216, label %238

216:                                              ; preds = %212
  %217 = load ptr, ptr %15, align 8, !tbaa !35
  %218 = load i32, ptr %17, align 4, !tbaa !21
  %219 = sext i32 %218 to i64
  %220 = getelementptr inbounds i32, ptr %217, i64 %219
  %221 = load i32, ptr %220, align 4, !tbaa !21
  %222 = and i32 %221, 16777215
  %223 = load ptr, ptr %16, align 8, !tbaa !20
  %224 = load i32, ptr %17, align 4, !tbaa !21
  %225 = sext i32 %224 to i64
  %226 = getelementptr inbounds i8, ptr %223, i64 %225
  %227 = load i8, ptr %226, align 1, !tbaa !36
  %228 = zext i8 %227 to i32
  %229 = shl i32 %228, 24
  %230 = or i32 %222, %229
  %231 = load ptr, ptr %15, align 8, !tbaa !35
  %232 = load i32, ptr %17, align 4, !tbaa !21
  %233 = sext i32 %232 to i64
  %234 = getelementptr inbounds i32, ptr %231, i64 %233
  store i32 %230, ptr %234, align 4, !tbaa !21
  br label %235

235:                                              ; preds = %216
  %236 = load i32, ptr %17, align 4, !tbaa !21
  %237 = add nsw i32 %236, 1
  store i32 %237, ptr %17, align 4, !tbaa !21
  br label %212, !llvm.loop !37

238:                                              ; preds = %212
  call void @llvm.lifetime.end.p0(i64 4, ptr %17) #7
  call void @llvm.lifetime.end.p0(i64 8, ptr %16) #7
  call void @llvm.lifetime.end.p0(i64 8, ptr %15) #7
  br label %239

239:                                              ; preds = %238
  %240 = load i32, ptr %4, align 4, !tbaa !21
  %241 = add nsw i32 %240, 1
  store i32 %241, ptr %4, align 4, !tbaa !21
  br label %187, !llvm.loop !38

242:                                              ; preds = %187
  br label %243

243:                                              ; preds = %242, %180
  call void @llvm.lifetime.end.p0(i64 8, ptr %12) #7
  call void @llvm.lifetime.end.p0(i64 8, ptr %11) #7
  call void @llvm.lifetime.end.p0(i64 8, ptr %10) #7
  call void @llvm.lifetime.end.p0(i64 8, ptr %9) #7
  call void @llvm.lifetime.end.p0(i64 8, ptr %8) #7
  call void @llvm.lifetime.end.p0(i64 4, ptr %7) #7
  call void @llvm.lifetime.end.p0(i64 4, ptr %6) #7
  call void @llvm.lifetime.end.p0(i64 4, ptr %5) #7
  call void @llvm.lifetime.end.p0(i64 4, ptr %4) #7
  store i32 1, ptr %2, align 4
  br label %244

244:                                              ; preds = %243, %66, %59, %50, %36, %20
  %245 = load i32, ptr %2, align 4
  ret i32 %245
}