; Function Attrs: nounwind uwtable
define i32 @WebPPictureYUVAToARGB(ptr noundef %0) local_unnamed_addr #0 {
  %2 = icmp eq ptr %0, null
  br i1 %2, label %.loopexit, label %3

3:                                                ; preds = %1
  %4 = getelementptr inbounds nuw i8, ptr %0, i64 16
  %5 = load ptr, ptr %4, align 8, !tbaa !23
  %6 = icmp eq ptr %5, null
  br i1 %6, label %.loopexit.sink.split, label %7

7:                                                ; preds = %3
  %8 = getelementptr inbounds nuw i8, ptr %0, i64 24
  %9 = load ptr, ptr %8, align 8, !tbaa !24
  %10 = icmp eq ptr %9, null
  br i1 %10, label %.loopexit.sink.split, label %11

11:                                               ; preds = %7
  %12 = getelementptr inbounds nuw i8, ptr %0, i64 32
  %13 = load ptr, ptr %12, align 8, !tbaa !25
  %14 = icmp eq ptr %13, null
  br i1 %14, label %.loopexit.sink.split, label %15

15:                                               ; preds = %11
  %16 = getelementptr inbounds nuw i8, ptr %0, i64 4
  %17 = load i32, ptr %16, align 4, !tbaa !22
  %18 = and i32 %17, 4
  %.not = icmp eq i32 %18, 0
  br i1 %.not, label %23, label %19

19:                                               ; preds = %15
  %20 = getelementptr inbounds nuw i8, ptr %0, i64 48
  %21 = load ptr, ptr %20, align 8, !tbaa !19
  %22 = icmp eq ptr %21, null
  br i1 %22, label %.loopexit.sink.split, label %23

23:                                               ; preds = %19, %15
  %24 = and i32 %17, 3
  %.not93 = icmp eq i32 %24, 0
  br i1 %.not93, label %25, label %.loopexit.sink.split

25:                                               ; preds = %23
  %26 = tail call i32 @WebPPictureAllocARGB(ptr noundef nonnull %0) #9
  %.not94 = icmp eq i32 %26, 0
  br i1 %.not94, label %.loopexit, label %27

27:                                               ; preds = %25
  store i32 1, ptr %0, align 8, !tbaa !3
  %28 = getelementptr inbounds nuw i8, ptr %0, i64 8
  %29 = load i32, ptr %28, align 8, !tbaa !13
  %30 = getelementptr inbounds nuw i8, ptr %0, i64 12
  %31 = load i32, ptr %30, align 4, !tbaa !14
  %32 = getelementptr inbounds nuw i8, ptr %0, i64 80
  %33 = load i32, ptr %32, align 8, !tbaa !15
  %34 = shl nsw i32 %33, 2
  %35 = getelementptr inbounds nuw i8, ptr %0, i64 72
  %36 = load ptr, ptr %35, align 8, !tbaa !12
  %37 = load ptr, ptr %8, align 8, !tbaa !24
  %38 = load ptr, ptr %12, align 8, !tbaa !25
  %39 = load ptr, ptr %4, align 8, !tbaa !23
  %40 = tail call ptr @WebPGetLinePairConverter(i32 noundef 1) #9
  tail call void %40(ptr noundef %39, ptr noundef null, ptr noundef %37, ptr noundef %38, ptr noundef %37, ptr noundef %38, ptr noundef %36, ptr noundef null, i32 noundef %29) #9
  %41 = getelementptr inbounds nuw i8, ptr %0, i64 40
  %42 = load i32, ptr %41, align 8, !tbaa !26
  %43 = sext i32 %42 to i64
  %44 = getelementptr inbounds i8, ptr %39, i64 %43
  %45 = sext i32 %34 to i64
  %46 = getelementptr inbounds i8, ptr %36, i64 %45
  %47 = icmp sgt i32 %31, 2
  br i1 %47, label %.lr.ph, label %._crit_edge

.lr.ph:                                           ; preds = %27
  %48 = getelementptr inbounds nuw i8, ptr %0, i64 44
  %49 = shl nsw i32 %33, 3
  %50 = sext i32 %49 to i64
  br label %51

51:                                               ; preds = %.lr.ph, %51
  %52 = phi i32 [ %42, %.lr.ph ], [ %60, %51 ]
  %.086101 = phi i32 [ 1, %.lr.ph ], [ %65, %51 ]
  %.087100 = phi ptr [ %46, %.lr.ph ], [ %64, %51 ]
  %.08899 = phi ptr [ %37, %.lr.ph ], [ %55, %51 ]
  %.08998 = phi ptr [ %38, %.lr.ph ], [ %56, %51 ]
  %.09097 = phi ptr [ %44, %.lr.ph ], [ %63, %51 ]
  %53 = load i32, ptr %48, align 4, !tbaa !27
  %54 = sext i32 %53 to i64
  %55 = getelementptr inbounds i8, ptr %.08899, i64 %54
  %56 = getelementptr inbounds i8, ptr %.08998, i64 %54
  %57 = sext i32 %52 to i64
  %58 = getelementptr inbounds i8, ptr %.09097, i64 %57
  %59 = getelementptr inbounds i8, ptr %.087100, i64 %45
  tail call void %40(ptr noundef %.09097, ptr noundef %58, ptr noundef %.08899, ptr noundef %.08998, ptr noundef %55, ptr noundef %56, ptr noundef %.087100, ptr noundef %59, i32 noundef %29) #9
  %60 = load i32, ptr %41, align 8, !tbaa !26
  %61 = shl nsw i32 %60, 1
  %62 = sext i32 %61 to i64
  %63 = getelementptr inbounds i8, ptr %.09097, i64 %62
  %64 = getelementptr inbounds i8, ptr %.087100, i64 %50
  %65 = add nuw nsw i32 %.086101, 2
  %.reass = add nuw i32 %.086101, 3
  %66 = icmp slt i32 %.reass, %31
  br i1 %66, label %51, label %._crit_edge, !llvm.loop !28

._crit_edge:                                      ; preds = %51, %27
  %.090.lcssa = phi ptr [ %44, %27 ], [ %63, %51 ]
  %.089.lcssa = phi ptr [ %38, %27 ], [ %56, %51 ]
  %.088.lcssa = phi ptr [ %37, %27 ], [ %55, %51 ]
  %.087.lcssa = phi ptr [ %46, %27 ], [ %64, %51 ]
  %67 = icmp sgt i32 %31, 1
  %68 = and i32 %31, 1
  %.not95 = icmp eq i32 %68, 0
  %or.cond = and i1 %67, %.not95
  br i1 %or.cond, label %69, label %70

69:                                               ; preds = %._crit_edge
  tail call void %40(ptr noundef %.090.lcssa, ptr noundef null, ptr noundef %.088.lcssa, ptr noundef %.089.lcssa, ptr noundef %.088.lcssa, ptr noundef %.089.lcssa, ptr noundef %.087.lcssa, ptr noundef null, i32 noundef %29) #9
  br label %70

70:                                               ; preds = %69, %._crit_edge
  %71 = load i32, ptr %16, align 4, !tbaa !22
  %72 = and i32 %71, 4
  %.not96 = icmp ne i32 %72, 0
  %73 = icmp sgt i32 %31, 0
  %or.cond111 = select i1 %.not96, i1 %73, i1 false
  br i1 %or.cond111, label %.lr.ph110, label %.loopexit

.lr.ph110:                                        ; preds = %70
  %74 = load ptr, ptr %35, align 8, !tbaa !12
  %75 = getelementptr inbounds nuw i8, ptr %0, i64 48
  %76 = load ptr, ptr %75, align 8, !tbaa !19
  %77 = getelementptr inbounds nuw i8, ptr %0, i64 56
  %78 = icmp sgt i32 %29, 0
  br i1 %78, label %.lr.ph107.us.preheader, label %.loopexit

.lr.ph107.us.preheader:                           ; preds = %.lr.ph110
  %wide.trip.count = zext nneg i32 %29 to i64
  br label %.lr.ph107.us

.lr.ph107.us:                                     ; preds = %.lr.ph107.us.preheader, %._crit_edge108.us
  %.1109.us = phi i32 [ %96, %._crit_edge108.us ], [ 0, %.lr.ph107.us.preheader ]
  %79 = load i32, ptr %32, align 8, !tbaa !15
  %80 = mul nsw i32 %79, %.1109.us
  %81 = sext i32 %80 to i64
  %82 = getelementptr inbounds i32, ptr %74, i64 %81
  %83 = load i32, ptr %77, align 8, !tbaa !20
  %84 = mul nsw i32 %83, %.1109.us
  %85 = sext i32 %84 to i64
  %86 = getelementptr inbounds i8, ptr %76, i64 %85
  br label %87

87:                                               ; preds = %.lr.ph107.us, %87
  %indvars.iv = phi i64 [ 0, %.lr.ph107.us ], [ %indvars.iv.next, %87 ]
  %88 = getelementptr inbounds nuw i32, ptr %82, i64 %indvars.iv
  %89 = load i32, ptr %88, align 4, !tbaa !29
  %90 = and i32 %89, 16777215
  %91 = getelementptr inbounds nuw i8, ptr %86, i64 %indvars.iv
  %92 = load i8, ptr %91, align 1, !tbaa !30
  %93 = zext i8 %92 to i32
  %94 = shl nuw i32 %93, 24
  %95 = or disjoint i32 %94, %90
  store i32 %95, ptr %88, align 4, !tbaa !29
  %indvars.iv.next = add nuw nsw i64 %indvars.iv, 1
  %exitcond.not = icmp eq i64 %indvars.iv.next, %wide.trip.count
  br i1 %exitcond.not, label %._crit_edge108.us, label %87, !llvm.loop !31

._crit_edge108.us:                                ; preds = %87
  %96 = add nuw nsw i32 %.1109.us, 1
  %exitcond117.not = icmp eq i32 %96, %31
  br i1 %exitcond117.not, label %.loopexit, label %.lr.ph107.us, !llvm.loop !32

.loopexit.sink.split:                             ; preds = %23, %19, %3, %7, %11
  %.sink = phi i32 [ 3, %11 ], [ 3, %7 ], [ 3, %3 ], [ 3, %19 ], [ 4, %23 ]
  %97 = tail call i32 @WebPEncodingSetError(ptr noundef nonnull %0, i32 noundef %.sink) #9
  br label %.loopexit

.loopexit:                                        ; preds = %._crit_edge108.us, %.loopexit.sink.split, %.lr.ph110, %70, %25, %1
  %.085 = phi i32 [ 0, %1 ], [ 0, %25 ], [ 1, %70 ], [ 1, %.lr.ph110 ], [ %97, %.loopexit.sink.split ], [ 1, %._crit_edge108.us ]
  ret i32 %.085
}